LX51 LINKER/LOCATER V4.66.87.0                                                          06/01/2021  16:27:13  PAGE 1


LX51 LINKER/LOCATER V4.66.87.0, INVOKED BY:
E:\MDKARMKEIL5\C51\BIN\LX51.EXE .\BUILD\RELEASE\XPT2046.O, .\BUILD\RELEASE\LCD.O, .\BUILD\RELEASE\PUBLIC.O, .\BUILD\RELE
>> ASE\TEMPE.O, .\BUILD\RELEASE\UART.O, .\BUILD\RELEASE\MAIN.O TO .\BUILD\RELEASE\MCS51 PRINT (.\build\Release\mcs51.map
>> ) REMOVEUNUSED


CPU MODE:     8051 MODE
MEMORY MODEL: SMALL WITH FLOATING POINT ARITHMETIC


INPUT MODULES INCLUDED:
  .\BUILD\RELEASE\XPT2046.O (XPT2046)
         COMMENT TYPE 0: C51 V9.57.0.0
  .\BUILD\RELEASE\LCD.O (LCD)
         COMMENT TYPE 0: C51 V9.57.0.0
  .\BUILD\RELEASE\PUBLIC.O (PUBLIC)
         COMMENT TYPE 0: C51 V9.57.0.0
  .\BUILD\RELEASE\TEMPE.O (TEMPE)
         COMMENT TYPE 0: C51 V9.57.0.0
  .\BUILD\RELEASE\UART.O (UART)
         COMMENT TYPE 0: C51 V9.57.0.0
  .\BUILD\RELEASE\MAIN.O (MAIN)
         COMMENT TYPE 0: C51 V9.57.0.0
  E:\MDKARMKEIL5\C51\LIB\C51FPS.LIB (?C?FPADD)
         COMMENT TYPE 1: A51 / ASM51 Assembler
  E:\MDKARMKEIL5\C51\LIB\C51FPS.LIB (?C?FPMUL)
         COMMENT TYPE 1: A51 / ASM51 Assembler
  E:\MDKARMKEIL5\C51\LIB\C51FPS.LIB (?C?FCAST)
         COMMENT TYPE 1: A51 / ASM51 Assembler
  E:\MDKARMKEIL5\C51\LIB\C51FPS.LIB (?C?CASTF)
         COMMENT TYPE 1: A51 / ASM51 Assembler
  E:\MDKARMKEIL5\C51\LIB\C51FPS.LIB (?C?FPGETOPN)
         COMMENT TYPE 1: A51 / ASM51 Assembler
  E:\MDKARMKEIL5\C51\LIB\C51S.LIB (?C_STARTUP)
         COMMENT TYPE 1: A51 / ASM51 Assembler
  E:\MDKARMKEIL5\C51\LIB\C51S.LIB (?C?COPY)
         COMMENT TYPE 1: A51 / ASM51 Assembler
  E:\MDKARMKEIL5\C51\LIB\C51S.LIB (?C?CLDPTR)
         COMMENT TYPE 1: A51 / ASM51 Assembler
  E:\MDKARMKEIL5\C51\LIB\C51S.LIB (?C?CLDOPTR)
         COMMENT TYPE 1: A51 / ASM51 Assembler
  E:\MDKARMKEIL5\C51\LIB\C51S.LIB (?C?CSTPTR)
         COMMENT TYPE 1: A51 / ASM51 Assembler
  E:\MDKARMKEIL5\C51\LIB\C51S.LIB (?C?SIDIV)
         COMMENT TYPE 1: A51 / ASM51 Assembler
  E:\MDKARMKEIL5\C51\LIB\C51S.LIB (?C?LNEG)
         COMMENT TYPE 1: A51 / ASM51 Assembler
  E:\MDKARMKEIL5\C51\LIB\C51S.LIB (?C_INIT)
         COMMENT TYPE 1: A51 / ASM51 Assembler
  E:\MDKARMKEIL5\C51\LIB\C51S.LIB (?C?UIDIV)
         COMMENT TYPE 1: A51 / ASM51 Assembler


ACTIVE MEMORY CLASSES OF MODULE:  .\BUILD\RELEASE\MCS51 (XPT2046)

BASE        START       END         USED      MEMORY CLASS
==========================================================
C:000000H   C:000000H   C:00FFFFH   000C08H   CODE
I:000000H   I:000000H   I:00007FH   000053H   DATA
C:000000H   C:000000H   C:00FFFFH   0000A4H   CONST
I:000000H   I:000000H   I:0000FFH   000001H   IDATA


MEMORY MAP OF MODULE:  .\BUILD\RELEASE\MCS51 (XPT2046)


LX51 LINKER/LOCATER V4.66.87.0                                                        06/01/2021  16:27:13  PAGE 2


START     STOP      LENGTH    ALIGN  RELOC    MEMORY CLASS   SEGMENT NAME
=========================================================================

* * * * * * * * * * *   D A T A   M E M O R Y   * * * * * * * * * * * * *
000000H   000007H   000008H   ---    AT..     DATA           "REG BANK 0"
000008H   000039H   000032H   BYTE   UNIT     DATA           ?DT?UART
00003AH   000049H   000010H   BYTE   UNIT     DATA           _DATA_GROUP_
00004AH   000052H   000009H   BYTE   UNIT     DATA           ?DT?PUBLIC
000053H   000053H   000001H   BYTE   UNIT     IDATA          ?STACK

* * * * * * * * * * *   C O D E   M E M O R Y   * * * * * * * * * * * * *
000000H   000002H   000003H   ---    OFFS..   CODE           ?CO??C_STARTUP?0
000003H   000021H   00001FH   BYTE   UNIT     CODE           ?PR?MAIN?MAIN
000022H   000022H   000001H   ---    ---      **GAP**
000023H   000025H   000003H   BYTE   OFFS..   CODE           ?UART?00023
000026H   0004C9H   0004A4H   BYTE   UNIT     CODE           ?C?LIB_CODE
0004CAH   0005C5H   0000FCH   BYTE   UNIT     CODE           ?PR?_DATAPROSTEMP?PUBLIC
0005C6H   00065DH   000098H   BYTE   UNIT     CODE           ?PR?SENDPRAD?PUBLIC
00065EH   0006EFH   000092H   BYTE   UNIT     CODE           ?PR?SENDTEMP?PUBLIC
0006F0H   00077DH   00008EH   BYTE   UNIT     CODE           ?PR?_LCDDISPLAYTEMP?LCD
00077EH   000809H   00008CH   BYTE   UNIT     CODE           ?C_C51STARTUP
00080AH   00088AH   000081H   BYTE   UNIT     CODE           ?PR?DEAL_UART_RECDATA?UART
00088BH   0008F4H   00006AH   BYTE   UNIT     CODE           ?PR?_LCDDISPLAYPRAD?LCD
0008F5H   000941H   00004DH   BYTE   UNIT     CODE           ?PR?USART?UART
000942H   00098AH   000049H   BYTE   UNIT     CODE           ?PR?RECEIVESTRING?UART
00098BH   0009CCH   000042H   BYTE   UNIT     CODE           ?PR?_DS18B20WRITEBYTE?TEMPE
0009CDH   000A0AH   00003EH   BYTE   UNIT     CODE           ?PR?DS18B20READBYTE?TEMPE
000A0BH   000A44H   00003AH   BYTE   UNIT     CODE           ?PR?_COMPARECMD_TAIL?UART
000A45H   000A70H   00002CH   BYTE   UNIT     CODE           ?C_INITSEG
000A71H   000A9CH   00002CH   BYTE   UNIT     CODE           ?PR?_COMPARECMD_HEAD?UART
000A9DH   000AC6H   00002AH   BYTE   UNIT     CODE           ?PR?_LCD1602_DELAY1MS?LCD
000AC7H   000AEAH   000024H   BYTE   UNIT     CODE           ?PR?SPI_READ?XPT2046
000AEBH   000B0EH   000024H   BYTE   UNIT     CODE           ?PR?DS18B20INIT?TEMPE
000B0FH   000B2CH   00001EH   BYTE   UNIT     CODE           ?PR?_DELAY1MS?TEMPE
000B2DH   000B49H   00001DH   BYTE   UNIT     CODE           ?PR?INIT_USART?UART
000B4AH   000B65H   00001CH   BYTE   UNIT     CODE           ?PR?_SPI_WRITE?XPT2046
000B66H   000B7FH   00001AH   BYTE   UNIT     CODE           ?PR?_PUTSTRING?UART
000B80H   000B98H   000019H   BYTE   UNIT     CODE           ?PR?_READ_AD_DATA?XPT2046
000B99H   000BB1H   000019H   BYTE   UNIT     CODE           ?PR?LCDINIT?LCD
000BB2H   000BC8H   000017H   BYTE   UNIT     CODE           ?PR?DS18B20READTEMP?TEMPE
000BC9H   000BDCH   000014H   BYTE   UNIT     CODE           ?PR?_LCDWRITEDATA?LCD
000BDDH   000BEDH   000011H   BYTE   UNIT     CODE           ?PR?_LCDWRITECOM?LCD
000BEEH   000BF8H   00000BH   BYTE   UNIT     CODE           ?PR?_DELAY?PUBLIC
000BF9H   000C00H   000008H   BYTE   UNIT     CODE           ?PR?DS18B20CHANGTEMP?TEMPE
000C01H   000C08H   000008H   BYTE   UNIT     CODE           ?PR?DS18B20READTEMPCOM?TEMPE
000C09H   000C95H   00008DH   BYTE   UNIT     CONST          ?CO?UART
000C96H   000CA2H   00000DH   BYTE   UNIT     CONST          ?CO?LCD
000CA3H   000CACH   00000AH   BYTE   UNIT     CONST          ?CO?PUBLIC

* * * * * * * * *   R E M O V E D     S E G M E N T S   * * * * * * * *
   *DEL*:           00000BH   BYTE   UNIT     CODE           ?PR?SPI_START?XPT2046
   *DEL*:           000059H   BYTE   UNIT     CODE           ?PR?DIGDISPLAY?PUBLIC
   *DEL*:           000001H   BYTE   UNIT     DATA           ?DT?DIGDISPLAY?PUBLIC



OVERLAY MAP OF MODULE:   .\BUILD\RELEASE\MCS51 (XPT2046)


FUNCTION/MODULE                BIT_GROUP   DATA_GROUP 
--> CALLED FUNCTION/MODULE    START  STOP  START  STOP
======================================================
USART/UART                    ----- -----  ----- -----
  +--> RECEIVESTRING/UART
  +--> DEAL_UART_RECDATA/UART
LX51 LINKER/LOCATER V4.66.87.0                                                        06/01/2021  16:27:13  PAGE 3


  +--> _PUTSTRING/UART

RECEIVESTRING/UART            ----- -----  ----- -----
  +--> _PUTSTRING/UART

_PUTSTRING/UART               ----- -----  ----- -----

DEAL_UART_RECDATA/UART        ----- -----  ----- -----
  +--> _PUTSTRING/UART
  +--> _COMPARECMD_HEAD/UART
  +--> _COMPARECMD_TAIL/UART
  +--> _DELAY/PUBLIC

_COMPARECMD_HEAD/UART         ----- -----  003AH 003CH

_COMPARECMD_TAIL/UART         ----- -----  003AH 003DH

_DELAY/PUBLIC                 ----- -----  ----- -----

*** NEW ROOT ****************

?C_C51STARTUP                 ----- -----  ----- -----
  +--> MAIN/MAIN
  +--> ?C_INITSEG

MAIN/MAIN                     ----- -----  ----- -----
  +--> INIT_USART/UART
  +--> LCDINIT/LCD
  +--> _LCDWRITECOM/LCD
  +--> _LCDWRITEDATA/LCD
  +--> SENDTEMP/PUBLIC
  +--> SENDPRAD/PUBLIC
  +--> _DELAY1MS/TEMPE

INIT_USART/UART               ----- -----  ----- -----

LCDINIT/LCD                   ----- -----  ----- -----
  +--> _LCDWRITECOM/LCD

_LCDWRITECOM/LCD              ----- -----  ----- -----
  +--> _LCD1602_DELAY1MS/LCD

_LCD1602_DELAY1MS/LCD         ----- -----  ----- -----

_LCDWRITEDATA/LCD             ----- -----  ----- -----
  +--> _LCD1602_DELAY1MS/LCD

SENDTEMP/PUBLIC               ----- -----  ----- -----
  +--> DS18B20READTEMP/TEMPE
  +--> _DATAPROSTEMP/PUBLIC
  +--> _PUTSTRING/UART
  +--> _LCDDISPLAYTEMP/LCD

DS18B20READTEMP/TEMPE         ----- -----  003EH 003EH
  +--> DS18B20CHANGTEMP/TEMPE
  +--> DS18B20READTEMPCOM/TEMPE
  +--> DS18B20READBYTE/TEMPE

DS18B20CHANGTEMP/TEMPE        ----- -----  ----- -----
  +--> _DS18B20WRITEBYTE/TEMPE

_DS18B20WRITEBYTE/TEMPE       ----- -----  003FH 0040H
  +--> DS18B20INIT/TEMPE
  +--> _DELAY1MS/TEMPE

LX51 LINKER/LOCATER V4.66.87.0                                                        06/01/2021  16:27:13  PAGE 4


DS18B20INIT/TEMPE             ----- -----  ----- -----
  +--> _DELAY1MS/TEMPE

_DELAY1MS/TEMPE               ----- -----  ----- -----

DS18B20READTEMPCOM/TEMPE      ----- -----  ----- -----
  +--> _DS18B20WRITEBYTE/TEMPE

DS18B20READBYTE/TEMPE         ----- -----  ----- -----

_DATAPROSTEMP/PUBLIC          ----- -----  003EH 0041H

_LCDDISPLAYTEMP/LCD           ----- -----  003EH 0046H
  +--> _LCDWRITECOM/LCD
  +--> _LCDWRITEDATA/LCD

SENDPRAD/PUBLIC               ----- -----  ----- -----
  +--> _READ_AD_DATA/XPT2046
  +--> _PUTSTRING/UART
  +--> _LCDDISPLAYPRAD/LCD

_READ_AD_DATA/XPT2046         ----- -----  ----- -----
  +--> _SPI_WRITE/XPT2046
  +--> SPI_READ/XPT2046

_SPI_WRITE/XPT2046            ----- -----  ----- -----

SPI_READ/XPT2046              ----- -----  ----- -----

_LCDDISPLAYPRAD/LCD           ----- -----  003EH 0049H
  +--> _LCDWRITECOM/LCD
  +--> _LCDWRITEDATA/LCD

?C_INITSEG                    ----- -----  ----- -----



PUBLIC SYMBOLS OF MODULE:  .\BUILD\RELEASE\MCS51 (XPT2046)


      VALUE       CLASS    TYPE      PUBLIC SYMBOL NAME
      =================================================
      01000262H   CODE     ---       ?C?CASTF
      010003F2H   CODE     ---       ?C?CLDOPTR
      010003D9H   CODE     ---       ?C?CLDPTR
      00000000H   NUMBER   ---       ?C?CODESEG
      010003B3H   CODE     ---       ?C?COPY
      0100041FH   CODE     ---       ?C?CSTPTR
      0100022EH   CODE     ---       ?C?FCASTC
      01000229H   CODE     ---       ?C?FCASTI
      01000224H   CODE     ---       ?C?FCASTL
      0100002DH   CODE     ---       ?C?FPADD
      01000299H   CODE     ---       ?C?FPGETOPN2
      0100011EH   CODE     ---       ?C?FPMUL
      010002CEH   CODE     ---       ?C?FPNANRESULT
      010002D8H   CODE     ---       ?C?FPOVERFLOW
      010002B0H   CODE     ---       ?C?FPRESULT
      010002C4H   CODE     ---       ?C?FPRESULT2
      01000029H   CODE     ---       ?C?FPSUB
      010002D5H   CODE     ---       ?C?FPUNDERFLOW
      01000467H   CODE     ---       ?C?LNEG
      01000431H   CODE     ---       ?C?SIDIV
      01000475H   CODE     ---       ?C?UIDIV
      00000000H   NUMBER   ---       ?C?XDATASEG
      010007C5H   CODE     ---       ?C_START
LX51 LINKER/LOCATER V4.66.87.0                                                        06/01/2021  16:27:13  PAGE 5


      01000000H   CODE     ---       ?C_STARTUP
      01000A71H   CODE     ---       _CompareCMD_head
      01000A11H   CODE     ---       _CompareCMD_tail
      010004CAH   CODE     ---       _dataprosTemp
      01000BEEH   CODE     ---       _delay
      01000B0FH   CODE     ---       _Delay1ms
      01000997H   CODE     ---       _Ds18b20WriteByte
      01000AAEH   CODE     ---       _Lcd1602_Delay1ms
      0100088BH   CODE     ---       _LcdDisplayPrad
      010006F0H   CODE     ---       _LcdDisplayTemp
      01000BE4H   CODE     ---       _LcdWriteCom
      01000BD3H   CODE     ---       _LcdWriteData
      01000B66H   CODE     ---       _PutString
      01000B80H   CODE     ---       _Read_AD_Data
      01000B4AH   CODE     ---       _SPI_Write
      0000001AH   DATA     ---       DataPackage_DS18B20
      0000002AH   DATA     ---       DataPackage_XPT2046
      0100080AH   CODE     ---       Deal_UART_RecData
*DEL*:00000000H   CODE     ---       DigDisplay
      0000004BH   DATA     ---       DisplayData
      01000BF9H   CODE     ---       Ds18b20ChangTemp
      01000AEBH   CODE     ---       Ds18b20Init
      010009CDH   CODE     ---       Ds18b20ReadByte
      01000BB2H   CODE     ---       Ds18b20ReadTemp
      01000C01H   CODE     ---       Ds18b20ReadTempCom
      01000B2DH   CODE     ---       Init_USART
      01000B99H   CODE     ---       LcdInit
      01000003H   CODE     ---       main
      0000004AH   DATA     CHAR      num
      00000008H   DATA     INT       number
      01000942H   CODE     ---       ReceiveString
      0000000AH   DATA     ---       RecvString_buf
      010005C6H   CODE     ---       sendprad
      0100065EH   CODE     ---       sendtemp
      01000CA3H   CONST    ---       smgduan
      01000AC7H   CODE     ---       SPI_Read
*DEL*:00000000H   CODE     ---       SPI_Start
      010008F5H   CODE     ---       USART



SYMBOL TABLE OF MODULE:  .\BUILD\RELEASE\MCS51 (XPT2046)

      VALUE       REP       CLASS    TYPE      SYMBOL NAME
      ====================================================
      ---         MODULE    ---      ---       XPT2046
      01000B80H   PUBLIC    CODE     ---       _Read_AD_Data
      01000AC7H   PUBLIC    CODE     ---       SPI_Read
      01000B4AH   PUBLIC    CODE     ---       _SPI_Write

      01000B4AH   BLOCK     CODE     ---       LVL=0
      01000B4AH   BLOCK     CODE     NEAR LAB  LVL=1
      00000006H   SYMBOL    DATA     VOID      i
      ---         BLOCKEND  ---      ---       LVL=1
      ---         BLOCKEND  ---      ---       LVL=0

      01000AC7H   BLOCK     CODE     ---       LVL=0
      01000AC7H   BLOCK     CODE     NEAR LAB  LVL=1
      00000004H   SYMBOL    DATA     VOID      i
      00000006H   SYMBOL    DATA     VOID      dat
      ---         BLOCKEND  ---      ---       LVL=1
      ---         BLOCKEND  ---      ---       LVL=0

      01000B80H   BLOCK     CODE     ---       LVL=0
      01000B80H   BLOCK     CODE     NEAR LAB  LVL=1
LX51 LINKER/LOCATER V4.66.87.0                                                        06/01/2021  16:27:13  PAGE 6


      00000007H   SYMBOL    DATA     VOID      i
      00000006H   SYMBOL    DATA     VOID      AD_Value
      ---         BLOCKEND  ---      ---       LVL=1
      ---         BLOCKEND  ---      ---       LVL=0

      ---         MODULE    ---      ---       LCD
      0100088BH   PUBLIC    CODE     ---       _LcdDisplayPrad
      010006F0H   PUBLIC    CODE     ---       _LcdDisplayTemp
      01000B99H   PUBLIC    CODE     ---       LcdInit
      01000BD3H   PUBLIC    CODE     ---       _LcdWriteData
      01000BE4H   PUBLIC    CODE     ---       _LcdWriteCom
      01000AAEH   PUBLIC    CODE     ---       _Lcd1602_Delay1ms

      01000A9DH   BLOCK     CODE     ---       LVL=0
      ---         BLOCKEND  ---      ---       LVL=0

      01000AAEH   BLOCK     CODE     ---       LVL=0
      01000AAEH   BLOCK     CODE     NEAR LAB  LVL=1
      00000004H   SYMBOL    DATA     VOID      a
      00000005H   SYMBOL    DATA     VOID      b
      ---         BLOCKEND  ---      ---       LVL=1
      ---         BLOCKEND  ---      ---       LVL=0

      01000BDDH   BLOCK     CODE     ---       LVL=0
      ---         BLOCKEND  ---      ---       LVL=0

      01000BE4H   BLOCK     CODE     ---       LVL=0
      ---         BLOCKEND  ---      ---       LVL=0

      01000BC9H   BLOCK     CODE     ---       LVL=0
      ---         BLOCKEND  ---      ---       LVL=0

      01000BD3H   BLOCK     CODE     ---       LVL=0
      ---         BLOCKEND  ---      ---       LVL=0

      01000B99H   BLOCK     CODE     ---       LVL=0
      ---         BLOCKEND  ---      ---       LVL=0

      010006F0H   BLOCK     CODE     ---       LVL=0
      010006F6H   BLOCK     CODE     NEAR LAB  LVL=1
      00000041H   SYMBOL    DATA     VOID      temp
      00000002H   SYMBOL    DATA     VOID      i
      ---         BLOCKEND  ---      ---       LVL=1
      ---         BLOCKEND  ---      ---       LVL=0

      0100088BH   BLOCK     CODE     ---       LVL=0
      01000891H   BLOCK     CODE     NEAR LAB  LVL=1
      00000041H   SYMBOL    DATA     VOID      light
      00000048H   SYMBOL    DATA     VOID      i
      ---         BLOCKEND  ---      ---       LVL=1
      ---         BLOCKEND  ---      ---       LVL=0

      ---         MODULE    ---      ---       PUBLIC
      0000004BH   PUBLIC    DATA     ---       DisplayData
      0000004AH   PUBLIC    DATA     CHAR      num
      01000CA3H   PUBLIC    CONST    ---       smgduan
      010005C6H   PUBLIC    CODE     ---       sendprad
      0100065EH   PUBLIC    CODE     ---       sendtemp
      010004CAH   PUBLIC    CODE     ---       _dataprosTemp
      01000BEEH   PUBLIC    CODE     ---       _delay

      01000BEEH   BLOCK     CODE     ---       LVL=0
      ---         BLOCKEND  ---      ---       LVL=0

      010004CAH   BLOCK     CODE     ---       LVL=0
LX51 LINKER/LOCATER V4.66.87.0                                                        06/01/2021  16:27:13  PAGE 7


      010004CEH   BLOCK     CODE     NEAR LAB  LVL=1
      0000003EH   SYMBOL    DATA     VOID      tp
      ---         BLOCKEND  ---      ---       LVL=1
      ---         BLOCKEND  ---      ---       LVL=0

      0100065EH   BLOCK     CODE     ---       LVL=0
      0100065EH   BLOCK     CODE     NEAR LAB  LVL=1
      00000002H   SYMBOL    DATA     VOID      temp
      ---         BLOCKEND  ---      ---       LVL=1
      ---         BLOCKEND  ---      ---       LVL=0

      010005C6H   BLOCK     CODE     ---       LVL=0
      010005C6H   BLOCK     CODE     NEAR LAB  LVL=1
      00000002H   SYMBOL    DATA     VOID      temp
      ---         BLOCKEND  ---      ---       LVL=1
      ---         BLOCKEND  ---      ---       LVL=0

      ---         MODULE    ---      ---       TEMPE
      01000BB2H   PUBLIC    CODE     ---       Ds18b20ReadTemp
      01000C01H   PUBLIC    CODE     ---       Ds18b20ReadTempCom
      01000BF9H   PUBLIC    CODE     ---       Ds18b20ChangTemp
      010009CDH   PUBLIC    CODE     ---       Ds18b20ReadByte
      01000997H   PUBLIC    CODE     ---       _Ds18b20WriteByte
      01000AEBH   PUBLIC    CODE     ---       Ds18b20Init
      01000B0FH   PUBLIC    CODE     ---       _Delay1ms

      01000B0FH   BLOCK     CODE     ---       LVL=0
      01000B0FH   BLOCK     CODE     NEAR LAB  LVL=1
      00000004H   SYMBOL    DATA     VOID      x
      ---         BLOCKEND  ---      ---       LVL=1
      ---         BLOCKEND  ---      ---       LVL=0

      01000AEBH   BLOCK     CODE     ---       LVL=0
      01000AEBH   BLOCK     CODE     NEAR LAB  LVL=1
      00000003H   SYMBOL    DATA     VOID      i
      ---         BLOCKEND  ---      ---       LVL=1
      ---         BLOCKEND  ---      ---       LVL=0

      0100098BH   BLOCK     CODE     ---       LVL=0
      ---         BLOCKEND  ---      ---       LVL=0

      01000997H   BLOCK     CODE     ---       LVL=0
      01000997H   BLOCK     CODE     NEAR LAB  LVL=1
      0000003FH   SYMBOL    DATA     VOID      i
      00000002H   SYMBOL    DATA     VOID      j
      ---         BLOCKEND  ---      ---       LVL=1
      ---         BLOCKEND  ---      ---       LVL=0

      010009CDH   BLOCK     CODE     ---       LVL=0
      010009CDH   BLOCK     CODE     NEAR LAB  LVL=1
      00000001H   SYMBOL    DATA     VOID      byte
      00000003H   SYMBOL    DATA     VOID      bi
      00000006H   SYMBOL    DATA     VOID      i
      00000004H   SYMBOL    DATA     VOID      j
      ---         BLOCKEND  ---      ---       LVL=1
      ---         BLOCKEND  ---      ---       LVL=0

      01000BF9H   BLOCK     CODE     ---       LVL=0
      ---         BLOCKEND  ---      ---       LVL=0

      01000C01H   BLOCK     CODE     ---       LVL=0
      ---         BLOCKEND  ---      ---       LVL=0

      01000BB2H   BLOCK     CODE     ---       LVL=0
      01000BB2H   BLOCK     CODE     NEAR LAB  LVL=1
LX51 LINKER/LOCATER V4.66.87.0                                                        06/01/2021  16:27:13  PAGE 8


      00000006H   SYMBOL    DATA     VOID      temp
      00000007H   SYMBOL    DATA     VOID      tmh
      0000003EH   SYMBOL    DATA     VOID      tml
      ---         BLOCKEND  ---      ---       LVL=1
      ---         BLOCKEND  ---      ---       LVL=0

      ---         MODULE    ---      ---       UART
      0000002AH   PUBLIC    DATA     ---       DataPackage_XPT2046
      0000001AH   PUBLIC    DATA     ---       DataPackage_DS18B20
      0000000AH   PUBLIC    DATA     ---       RecvString_buf
      00000008H   PUBLIC    DATA     INT       number
      010008F5H   PUBLIC    CODE     ---       USART
      0100080AH   PUBLIC    CODE     ---       Deal_UART_RecData
      01000A11H   PUBLIC    CODE     ---       _CompareCMD_tail
      01000A71H   PUBLIC    CODE     ---       _CompareCMD_head
      01000B2DH   PUBLIC    CODE     ---       Init_USART
      01000942H   PUBLIC    CODE     ---       ReceiveString
      01000B66H   PUBLIC    CODE     ---       _PutString

      01000B66H   BLOCK     CODE     ---       LVL=0
      ---         BLOCKEND  ---      ---       LVL=0

      01000942H   BLOCK     CODE     ---       LVL=0
      01000942H   BLOCK     CODE     NEAR LAB  LVL=1
      00000001H   SYMBOL    DATA     VOID      RecStr
      00000007H   SYMBOL    DATA     VOID      num
      00000006H   SYMBOL    DATA     VOID      count
      0100094AH   SYMBOL    CODE     VOID      loop
      ---         BLOCKEND  ---      ---       LVL=1
      ---         BLOCKEND  ---      ---       LVL=0

      01000B2DH   BLOCK     CODE     ---       LVL=0
      ---         BLOCKEND  ---      ---       LVL=0

      01000A71H   BLOCK     CODE     ---       LVL=0
      01000A77H   BLOCK     CODE     NEAR LAB  LVL=1
      00000007H   SYMBOL    DATA     VOID      CharNum
      ---         BLOCKEND  ---      ---       LVL=1
      ---         BLOCKEND  ---      ---       LVL=0

      01000A0BH   BLOCK     CODE     ---       LVL=0
      ---         BLOCKEND  ---      ---       LVL=0

      01000A11H   BLOCK     CODE     ---       LVL=0
      01000A19H   BLOCK     CODE     NEAR LAB  LVL=1
      00000007H   SYMBOL    DATA     VOID      CharNum
      ---         BLOCKEND  ---      ---       LVL=1
      ---         BLOCKEND  ---      ---       LVL=0

      0100080AH   BLOCK     CODE     ---       LVL=0
      ---         BLOCKEND  ---      ---       LVL=0

      010008F5H   BLOCK     CODE     ---       LVL=0
      ---         BLOCKEND  ---      ---       LVL=0

      ---         MODULE    ---      ---       MAIN
      01000003H   PUBLIC    CODE     ---       main

      01000003H   BLOCK     CODE     ---       LVL=0
      ---         BLOCKEND  ---      ---       LVL=0

      ---         MODULE    ---      ---       ?C?FPADD
      0100002DH   PUBLIC    CODE     ---       ?C?FPADD
      01000029H   PUBLIC    CODE     ---       ?C?FPSUB

LX51 LINKER/LOCATER V4.66.87.0                                                        06/01/2021  16:27:13  PAGE 9


      ---         MODULE    ---      ---       ?C?FPMUL
      0100011EH   PUBLIC    CODE     ---       ?C?FPMUL

      ---         MODULE    ---      ---       ?C?FCAST
      0100022EH   PUBLIC    CODE     ---       ?C?FCASTC
      01000229H   PUBLIC    CODE     ---       ?C?FCASTI
      01000224H   PUBLIC    CODE     ---       ?C?FCASTL

      ---         MODULE    ---      ---       ?C?CASTF
      01000262H   PUBLIC    CODE     ---       ?C?CASTF

      ---         MODULE    ---      ---       ?C?FPGETOPN
      01000299H   PUBLIC    CODE     ---       ?C?FPGETOPN2
      010002CEH   PUBLIC    CODE     ---       ?C?FPNANRESULT
      010002D8H   PUBLIC    CODE     ---       ?C?FPOVERFLOW
      010002B0H   PUBLIC    CODE     ---       ?C?FPRESULT
      010002C4H   PUBLIC    CODE     ---       ?C?FPRESULT2
      010002D5H   PUBLIC    CODE     ---       ?C?FPUNDERFLOW

      ---         MODULE    ---      ---       ?C_STARTUP
      01000000H   PUBLIC    CODE     ---       ?C_STARTUP

      ---         MODULE    ---      ---       ?C?COPY
      010003B3H   PUBLIC    CODE     ---       ?C?COPY

      ---         MODULE    ---      ---       ?C?CLDPTR
      010003D9H   PUBLIC    CODE     ---       ?C?CLDPTR

      ---         MODULE    ---      ---       ?C?CLDOPTR
      010003F2H   PUBLIC    CODE     ---       ?C?CLDOPTR

      ---         MODULE    ---      ---       ?C?CSTPTR
      0100041FH   PUBLIC    CODE     ---       ?C?CSTPTR

      ---         MODULE    ---      ---       ?C?SIDIV
      01000431H   PUBLIC    CODE     ---       ?C?SIDIV

      ---         MODULE    ---      ---       ?C?LNEG
      01000467H   PUBLIC    CODE     ---       ?C?LNEG

      ---         MODULE    ---      ---       ?C_INIT
      010007C5H   PUBLIC    CODE     ---       ?C_START

      ---         MODULE    ---      ---       ?C?UIDIV
      01000475H   PUBLIC    CODE     ---       ?C?UIDIV

Program Size: data=84.0 xdata=0 const=164 code=3080
LX51 RUN COMPLETE.  0 WARNING(S),  0 ERROR(S)
